target datalayout = "e-m:e-p270:32:32-p271:32:32-p272:64:64-i64:64-i128:128-f80:128-n8:16:32:64-S128"
target triple = "x86_64-pc-linux-gnu"

%"struct.vcpkg::StringView" = type { ptr, i64 }

; Function Attrs: mustprogress nounwind uwtable
define linkonce_odr dso_local noundef i32 @_ZSt8__memcmpIccEiPKT_PKT0_m(ptr noundef %0, ptr noundef %1, i64 noundef %2) #1 comdat {
  %4 = alloca ptr, align 8
  %5 = alloca ptr, align 8
  %6 = alloca i64, align 8
  store ptr %0, ptr %4, align 8
  store ptr %1, ptr %5, align 8
  store i64 %2, ptr %6, align 8
  %7 = load ptr, ptr %4, align 8
  %8 = load ptr, ptr %5, align 8
  %9 = load i64, ptr %6, align 8
  %10 = mul i64 1, %9
  %11 = call i32 @memcmp(ptr noundef %7, ptr noundef %8, i64 noundef %10) #2
  ret i32 %11
}

; Function Attrs: mustprogress uwtable
define linkonce_odr dso_local noundef zeroext i1 @_ZNSt7__equalILb1EE5equalIcEEbPKT_S4_S4_(ptr noundef %0, ptr noundef %1, ptr noundef %2) #3 comdat align 2 {
  %4 = alloca i1, align 1
  %5 = alloca ptr, align 8
  %6 = alloca ptr, align 8
  %7 = alloca ptr, align 8
  %8 = alloca i64, align 8
  store ptr %0, ptr %5, align 8
  store ptr %1, ptr %6, align 8
  store ptr %2, ptr %7, align 8
  %9 = load ptr, ptr %6, align 8
  %10 = load ptr, ptr %5, align 8
  %11 = ptrtoint ptr %9 to i64
  %12 = ptrtoint ptr %10 to i64
  %13 = sub i64 %11, %12
  store i64 %13, ptr %8, align 8
  %14 = load i64, ptr %8, align 8
  %15 = icmp ne i64 %14, 0
  br i1 %15, label %16, label %23

16:                                               ; preds = %3
  %17 = load ptr, ptr %5, align 8
  %18 = load ptr, ptr %7, align 8
  %19 = load i64, ptr %8, align 8
  %20 = call noundef i32 @_ZSt8__memcmpIccEiPKT_PKT0_m(ptr noundef %17, ptr noundef %18, i64 noundef %19)
  %21 = icmp ne i32 %20, 0
  %22 = xor i1 %21, true
  store i1 %22, ptr %4, align 1
  br label %24

23:                                               ; preds = %3
  store i1 true, ptr %4, align 1
  br label %24

24:                                               ; preds = %23, %16
  %25 = load i1, ptr %4, align 1
  ret i1 %25
}

; Function Attrs: mustprogress uwtable
define linkonce_odr dso_local noundef zeroext i1 @_ZSt12__equal_aux1IPKcS1_EbT_S2_T0_(ptr noundef %0, ptr noundef %1, ptr noundef %2) #3 comdat {
  %4 = alloca ptr, align 8
  %5 = alloca ptr, align 8
  %6 = alloca ptr, align 8
  %7 = alloca i8, align 1
  store ptr %0, ptr %4, align 8
  store ptr %1, ptr %5, align 8
  store ptr %2, ptr %6, align 8
  store i8 1, ptr %7, align 1
  %8 = load ptr, ptr %4, align 8
  %9 = load ptr, ptr %5, align 8
  %10 = load ptr, ptr %6, align 8
  %11 = call noundef zeroext i1 @_ZNSt7__equalILb1EE5equalIcEEbPKT_S4_S4_(ptr noundef %8, ptr noundef %9, ptr noundef %10)
  ret i1 %11
}

; Function Attrs: mustprogress nounwind uwtable
define linkonce_odr dso_local noundef ptr @_ZSt12__niter_baseIPKcET_S2_(ptr noundef %0) #1 comdat {
  %2 = alloca ptr, align 8
  store ptr %0, ptr %2, align 8
  %3 = load ptr, ptr %2, align 8
  ret ptr %3
}

; Function Attrs: mustprogress uwtable
define linkonce_odr dso_local noundef zeroext i1 @_ZSt11__equal_auxIPKcS1_EbT_S2_T0_(ptr noundef %0, ptr noundef %1, ptr noundef %2) #3 comdat {
  %4 = alloca ptr, align 8
  %5 = alloca ptr, align 8
  %6 = alloca ptr, align 8
  store ptr %0, ptr %4, align 8
  store ptr %1, ptr %5, align 8
  store ptr %2, ptr %6, align 8
  %7 = load ptr, ptr %4, align 8
  %8 = call noundef ptr @_ZSt12__niter_baseIPKcET_S2_(ptr noundef %7) #2
  %9 = load ptr, ptr %5, align 8
  %10 = call noundef ptr @_ZSt12__niter_baseIPKcET_S2_(ptr noundef %9) #2
  %11 = load ptr, ptr %6, align 8
  %12 = call noundef ptr @_ZSt12__niter_baseIPKcET_S2_(ptr noundef %11) #2
  %13 = call noundef zeroext i1 @_ZSt12__equal_aux1IPKcS1_EbT_S2_T0_(ptr noundef %8, ptr noundef %10, ptr noundef %12)
  ret i1 %13
}

; Function Attrs: mustprogress uwtable
define linkonce_odr dso_local noundef zeroext i1 @_ZSt5equalIPKcS1_EbT_S2_T0_(ptr noundef %0, ptr noundef %1, ptr noundef %2) #3 comdat {
  %4 = alloca ptr, align 8
  %5 = alloca ptr, align 8
  %6 = alloca ptr, align 8
  store ptr %0, ptr %4, align 8
  store ptr %1, ptr %5, align 8
  store ptr %2, ptr %6, align 8
  %7 = load ptr, ptr %4, align 8
  %8 = load ptr, ptr %5, align 8
  %9 = load ptr, ptr %6, align 8
  %10 = call noundef zeroext i1 @_ZSt11__equal_auxIPKcS1_EbT_S2_T0_(ptr noundef %7, ptr noundef %8, ptr noundef %9)
  ret i1 %10
}

; Function Attrs: mustprogress nounwind uwtable
define linkonce_odr dso_local noundef ptr @_ZNK5vcpkg10StringView3endEv(ptr noundef nonnull align 8 dereferenceable(16) %0) #1 comdat align 2 {
  %2 = alloca ptr, align 8
  store ptr %0, ptr %2, align 8
  %3 = load ptr, ptr %2, align 8
  %4 = getelementptr inbounds %"struct.vcpkg::StringView", ptr %3, i32 0, i32 0
  %5 = load ptr, ptr %4, align 8
  %6 = getelementptr inbounds %"struct.vcpkg::StringView", ptr %3, i32 0, i32 1
  %7 = load i64, ptr %6, align 8
  %8 = getelementptr inbounds i8, ptr %5, i64 %7
  ret ptr %8
}

; Function Attrs: mustprogress nounwind uwtable
define linkonce_odr dso_local noundef ptr @_ZNK5vcpkg10StringView5beginEv(ptr noundef nonnull align 8 dereferenceable(16) %0) #1 comdat align 2 {
  %2 = alloca ptr, align 8
  store ptr %0, ptr %2, align 8
  %3 = load ptr, ptr %2, align 8
  %4 = getelementptr inbounds %"struct.vcpkg::StringView", ptr %3, i32 0, i32 0
  %5 = load ptr, ptr %4, align 8
  ret ptr %5
}

; Function Attrs: mustprogress nounwind uwtable
define linkonce_odr dso_local noundef signext i8 @_ZNK5vcpkg10StringViewixEm(ptr noundef nonnull align 8 dereferenceable(16) %0, i64 noundef %1) #1 comdat align 2 {
  %3 = alloca ptr, align 8
  %4 = alloca i64, align 8
  store ptr %0, ptr %3, align 8
  store i64 %1, ptr %4, align 8
  %5 = load ptr, ptr %3, align 8
  %6 = getelementptr inbounds %"struct.vcpkg::StringView", ptr %5, i32 0, i32 0
  %7 = load ptr, ptr %6, align 8
  %8 = load i64, ptr %4, align 8
  %9 = getelementptr inbounds i8, ptr %7, i64 %8
  %10 = load i8, ptr %9, align 1
  ret i8 %10
}

; Function Attrs: mustprogress nounwind uwtable
define linkonce_odr dso_local noundef i64 @_ZNK5vcpkg10StringView4sizeEv(ptr noundef nonnull align 8 dereferenceable(16) %0) #1 comdat align 2 {
  %2 = alloca ptr, align 8
  store ptr %0, ptr %2, align 8
  %3 = load ptr, ptr %2, align 8
  %4 = getelementptr inbounds %"struct.vcpkg::StringView", ptr %3, i32 0, i32 1
  %5 = load i64, ptr %4, align 8
  ret i64 %5
}

; Function Attrs: mustprogress uwtable
define dso_local noundef i64 @_ZN5vcpkg21package_pattern_matchENS_10StringViewES0_(ptr %0, i64 %1, ptr %2, i64 %3) #3 {
  %5 = alloca i64, align 8
  %6 = alloca %"struct.vcpkg::StringView", align 8
  %7 = alloca %"struct.vcpkg::StringView", align 8
  %8 = alloca i64, align 8
  %9 = alloca i64, align 8
  %10 = alloca %"struct.vcpkg::StringView", align 8
  %11 = alloca %"struct.vcpkg::StringView", align 8
  %12 = getelementptr inbounds { ptr, i64 }, ptr %6, i32 0, i32 0
  store ptr %0, ptr %12, align 8
  %13 = getelementptr inbounds { ptr, i64 }, ptr %6, i32 0, i32 1
  store i64 %1, ptr %13, align 8
  %14 = getelementptr inbounds { ptr, i64 }, ptr %7, i32 0, i32 0
  store ptr %2, ptr %14, align 8
  %15 = getelementptr inbounds { ptr, i64 }, ptr %7, i32 0, i32 1
  store i64 %3, ptr %15, align 8
  %16 = call noundef i64 @_ZNK5vcpkg10StringView4sizeEv(ptr noundef nonnull align 8 dereferenceable(16) %7) #2
  store i64 %16, ptr %8, align 8
  %17 = load i64, ptr %8, align 8
  %18 = sub i64 %17, 1
  store i64 %18, ptr %9, align 8
  %19 = load i64, ptr %8, align 8
  %20 = icmp ne i64 %19, 0
  br i1 %20, label %21, label %39

21:                                               ; preds = %4
  %22 = load i64, ptr %9, align 8
  %23 = call noundef signext i8 @_ZNK5vcpkg10StringViewixEm(ptr noundef nonnull align 8 dereferenceable(16) %7, i64 noundef %22) #2
  %24 = sext i8 %23 to i32
  %25 = icmp eq i32 %24, 42
  br i1 %25, label %26, label %39

26:                                               ; preds = %21
  %27 = call noundef i64 @_ZNK5vcpkg10StringView4sizeEv(ptr noundef nonnull align 8 dereferenceable(16) %6) #2
  %28 = load i64, ptr %9, align 8
  %29 = icmp uge i64 %27, %28
  br i1 %29, label %30, label %38

30:                                               ; preds = %26
  %31 = call noundef ptr @_ZNK5vcpkg10StringView5beginEv(ptr noundef nonnull align 8 dereferenceable(16) %7) #2
  %32 = call noundef ptr @_ZNK5vcpkg10StringView3endEv(ptr noundef nonnull align 8 dereferenceable(16) %7) #2
  %33 = getelementptr inbounds i8, ptr %32, i64 -1
  %34 = call noundef ptr @_ZNK5vcpkg10StringView5beginEv(ptr noundef nonnull align 8 dereferenceable(16) %6) #2
  %35 = call noundef zeroext i1 @_ZSt5equalIPKcS1_EbT_S2_T0_(ptr noundef %31, ptr noundef %33, ptr noundef %34)
  br i1 %35, label %36, label %38

36:                                               ; preds = %30
  %37 = load i64, ptr %8, align 8
  store i64 %37, ptr %5, align 8
  br label %52

38:                                               ; preds = %30, %26
  br label %51

39:                                               ; preds = %21, %4
  call void @llvm.memcpy.p0.p0.i64(ptr align 8 %10, ptr align 8 %6, i64 16, i1 false)
  call void @llvm.memcpy.p0.p0.i64(ptr align 8 %11, ptr align 8 %7, i64 16, i1 false)
  %40 = getelementptr inbounds { ptr, i64 }, ptr %10, i32 0, i32 0
  %41 = load ptr, ptr %40, align 8
  %42 = getelementptr inbounds { ptr, i64 }, ptr %10, i32 0, i32 1
  %43 = load i64, ptr %42, align 8
  %44 = getelementptr inbounds { ptr, i64 }, ptr %11, i32 0, i32 0
  %45 = load ptr, ptr %44, align 8
  %46 = getelementptr inbounds { ptr, i64 }, ptr %11, i32 0, i32 1
  %47 = load i64, ptr %46, align 8
  %48 = call noundef zeroext i1 @_ZN5vcpkgeqENS_10StringViewES0_(ptr %41, i64 %43, ptr %45, i64 %47) #2
  br i1 %48, label %49, label %50

49:                                               ; preds = %39
  store i64 -1, ptr %5, align 8
  br label %52

50:                                               ; preds = %39
  br label %51

51:                                               ; preds = %50, %38
  store i64 0, ptr %5, align 8
  br label %52

52:                                               ; preds = %51, %49, %36
  %53 = load i64, ptr %5, align 8
  ret i64 %53
}