; Function Attrs: mustprogress nounwind uwtable
define dso_local noundef i64 @_ZN5vcpkg21package_pattern_matchENS_10StringViewES0_(ptr %0, i64 %1, ptr %2, i64 %3) local_unnamed_addr #6 {
  %5 = add i64 %3, -1
  %.not = icmp eq i64 %3, 0
  br i1 %.not, label %17, label %6

6:                                                ; preds = %4
  %7 = getelementptr inbounds i8, ptr %2, i64 %5
  %8 = load i8, ptr %7, align 1
  %9 = icmp eq i8 %8, 42
  br i1 %9, label %10, label %17

10:                                               ; preds = %6
  %.not9 = icmp ugt i64 %5, %1
  br i1 %.not9, label %19, label %11

11:                                               ; preds = %10
  %12 = getelementptr inbounds i8, ptr %2, i64 %3
  %13 = getelementptr inbounds i8, ptr %12, i64 -1
  %.not.i.i.i.i = icmp eq ptr %13, %2
  br i1 %.not.i.i.i.i, label %_ZSt5equalIPKcS1_EbT_S2_T0_.exit.thread, label %_ZSt5equalIPKcS1_EbT_S2_T0_.exit

_ZSt5equalIPKcS1_EbT_S2_T0_.exit:                 ; preds = %11
  %14 = ptrtoint ptr %2 to i64
  %15 = ptrtoint ptr %13 to i64
  %16 = sub i64 %15, %14
  %bcmp.i.i.i.i = tail call i32 @bcmp(ptr nonnull %2, ptr %0, i64 %16)
  %.not7.i.i.i.i = icmp eq i32 %bcmp.i.i.i.i, 0
  br i1 %.not7.i.i.i.i, label %_ZSt5equalIPKcS1_EbT_S2_T0_.exit.thread, label %19

17:                                               ; preds = %6, %4
  %18 = tail call noundef zeroext i1 @_ZN5vcpkgeqENS_10StringViewES0_(ptr %0, i64 %1, ptr %2, i64 %3) #26
  br i1 %18, label %_ZSt5equalIPKcS1_EbT_S2_T0_.exit.thread, label %19

19:                                               ; preds = %17, %10, %_ZSt5equalIPKcS1_EbT_S2_T0_.exit
  br label %_ZSt5equalIPKcS1_EbT_S2_T0_.exit.thread

_ZSt5equalIPKcS1_EbT_S2_T0_.exit.thread:          ; preds = %11, %17, %_ZSt5equalIPKcS1_EbT_S2_T0_.exit, %19
  %.0 = phi i64 [ 0, %19 ], [ %3, %_ZSt5equalIPKcS1_EbT_S2_T0_.exit ], [ -1, %17 ], [ %3, %11 ]
  ret i64 %.0
}